; Function Attrs: mustprogress uwtable
define void @uregex_reset64_75(ptr noundef readonly %regexp2, i64 noundef %index, ptr noundef %status) local_unnamed_addr #5 {
entry:
  %0 = load i32, ptr %status, align 4
  %cmp.i.i = icmp slt i32 %0, 1
  br i1 %cmp.i.i, label %if.end.i, label %return

if.end.i:                                         ; preds = %entry
  %cmp.i = icmp eq ptr %regexp2, null
  br i1 %cmp.i, label %return.sink.split.i, label %lor.lhs.false.i

lor.lhs.false.i:                                  ; preds = %if.end.i
  %1 = load i32, ptr %regexp2, align 8
  %cmp1.not.i = icmp eq i32 %1, 1919252592
  br i1 %cmp1.not.i, label %if.end3.i, label %return.sink.split.i

if.end3.i:                                        ; preds = %lor.lhs.false.i
  %fText.i = getelementptr inbounds i8, ptr %regexp2, i64 48
  %2 = load ptr, ptr %fText.i, align 8
  %cmp5.i = icmp eq ptr %2, null
  br i1 %cmp5.i, label %land.lhs.true6.i, label %if.end

land.lhs.true6.i:                                 ; preds = %if.end3.i
  %fOwnsText.i = getelementptr inbounds i8, ptr %regexp2, i64 60
  %3 = load i8, ptr %fOwnsText.i, align 4
  %tobool7.not.i = icmp eq i8 %3, 0
  br i1 %tobool7.not.i, label %return.sink.split.i, label %if.end

return.sink.split.i:                              ; preds = %land.lhs.true6.i, %lor.lhs.false.i, %if.end.i
  %.sink.i = phi i32 [ 1, %lor.lhs.false.i ], [ 1, %if.end.i ], [ 66306, %land.lhs.true6.i ]
  store i32 %.sink.i, ptr %status, align 4
  br label %return

if.end:                                           ; preds = %land.lhs.true6.i, %if.end3.i
  %fMatcher = getelementptr inbounds i8, ptr %regexp2, i64 40
  %4 = load ptr, ptr %fMatcher, align 8
  %call1 = tail call noundef nonnull align 8 dereferenceable(336) ptr @_ZN6icu_7512RegexMatcher5resetElR10UErrorCode(ptr noundef nonnull align 8 dereferenceable(336) %4, i64 noundef %index, ptr noundef nonnull align 4 dereferenceable(4) %status)
  br label %return

return:                                           ; preds = %return.sink.split.i, %entry, %if.end
  ret void
}